; Function Attrs: mustprogress nounwind uwtable
define internal void @"_ZN4llvm12function_refIFvvEE11callback_fnIZNS_2cl26TokenizeWindowsCommandLineENS_9StringRefERNS_11StringSaverERNS_15SmallVectorImplIPKcEEbE3$_1EEvl"(i64 noundef %0) #0 align 2 {
  %2 = inttoptr i64 %0 to ptr
  %.val = load ptr, ptr %2, align 8
  %3 = getelementptr i8, ptr %2, i64 8
  %.val1 = load ptr, ptr %3, align 8
  %.val.val = load i8, ptr %.val, align 1
  %4 = trunc i8 %.val.val to i1
  br i1 %4, label %5, label %"_ZZN4llvm2cl26TokenizeWindowsCommandLineENS_9StringRefERNS_11StringSaverERNS_15SmallVectorImplIPKcEEbENK3$_1clEv.exit"

5:                                                ; preds = %1
  %6 = tail call noundef i64 @_ZNK4llvm15SmallVectorBaseIjE4sizeEv(ptr noundef nonnull align 8 dereferenceable(16) %.val1) #25
  %7 = add i64 %6, 1
  %8 = tail call noundef i64 @_ZNK4llvm15SmallVectorBaseIjE8capacityEv(ptr noundef nonnull align 8 dereferenceable(16) %.val1) #25
  %.not.i.i.i.i = icmp ugt i64 %7, %8
  br i1 %.not.i.i.i.i, label %9, label %_ZN4llvm23SmallVectorTemplateBaseIPKcLb1EE9push_backES2_.exit.i

9:                                                ; preds = %5
  %10 = getelementptr inbounds i8, ptr %.val1, i64 16
  tail call void @_ZN4llvm15SmallVectorBaseIjE8grow_podEPvmm(ptr noundef nonnull align 8 dereferenceable(16) %.val1, ptr noundef nonnull %10, i64 noundef %7, i64 noundef 8) #25
  br label %_ZN4llvm23SmallVectorTemplateBaseIPKcLb1EE9push_backES2_.exit.i

_ZN4llvm23SmallVectorTemplateBaseIPKcLb1EE9push_backES2_.exit.i: ; preds = %9, %5
  %11 = load ptr, ptr %.val1, align 8
  %12 = tail call noundef i64 @_ZNK4llvm15SmallVectorBaseIjE4sizeEv(ptr noundef nonnull align 8 dereferenceable(16) %.val1) #25
  %13 = getelementptr inbounds ptr, ptr %11, i64 %12
  store i64 0, ptr %13, align 1
  %14 = tail call noundef i64 @_ZNK4llvm15SmallVectorBaseIjE4sizeEv(ptr noundef nonnull align 8 dereferenceable(16) %.val1) #25
  %15 = add i64 %14, 1
  tail call void @_ZN4llvm15SmallVectorBaseIjE8set_sizeEm(ptr noundef nonnull align 8 dereferenceable(16) %.val1, i64 noundef %15) #25
  br label %"_ZZN4llvm2cl26TokenizeWindowsCommandLineENS_9StringRefERNS_11StringSaverERNS_15SmallVectorImplIPKcEEbENK3$_1clEv.exit"

"_ZZN4llvm2cl26TokenizeWindowsCommandLineENS_9StringRefERNS_11StringSaverERNS_15SmallVectorImplIPKcEEbENK3$_1clEv.exit": ; preds = %1, %_ZN4llvm23SmallVectorTemplateBaseIPKcLb1EE9push_backES2_.exit.i
  ret void
}